; ModuleID = 'source-C-CXX/2/89.c'
source_filename = "source-C-CXX/2/89.c"
target datalayout = "e-m:e-p270:32:32-p271:32:32-p272:64:64-i64:64-f80:128-n8:16:32:64-S128"
target triple = "x86_64-pc-linux-gnu"

@.str = private unnamed_addr constant [6 x i8] c"%d %d\00", align 1
@.str.1 = private unnamed_addr constant [3 x i8] c"%d\00", align 1
@.str.2 = private unnamed_addr constant [4 x i8] c"yes\00", align 1
@.str.3 = private unnamed_addr constant [3 x i8] c"no\00", align 1

; Function Attrs: nofree nounwind sspstrong uwtable
define dso_local i32 @main(i32 %0, i8** nocapture readnone %1) local_unnamed_addr #0 {
  %3 = alloca i32, align 4
  %4 = alloca i32, align 4
  %5 = alloca [1001 x i32], align 16
  %6 = bitcast i32* %3 to i8*
  call void @llvm.lifetime.start.p0i8(i64 4, i8* nonnull %6) #3
  %7 = bitcast i32* %4 to i8*
  call void @llvm.lifetime.start.p0i8(i64 4, i8* nonnull %7) #3
  %8 = call i32 (i8*, ...) @__isoc99_scanf(i8* getelementptr inbounds ([6 x i8], [6 x i8]* @.str, i64 0, i64 0), i32* nonnull %3, i32* nonnull %4)
  %9 = bitcast [1001 x i32]* %5 to i8*
  call void @llvm.lifetime.start.p0i8(i64 4004, i8* nonnull %9) #3
  %10 = load i32, i32* %3, align 4, !tbaa !5
  %11 = icmp slt i32 %10, 1
  br i1 %11, label %45, label %19

12:                                               ; preds = %19
  %13 = load i32, i32* %4, align 4
  %14 = icmp sgt i32 %24, 1
  br i1 %14, label %15, label %45

15:                                               ; preds = %12
  %16 = add nuw i32 %24, 1
  %17 = zext i32 %24 to i64
  %18 = zext i32 %16 to i64
  br label %30

19:                                               ; preds = %2, %19
  %20 = phi i64 [ %23, %19 ], [ 1, %2 ]
  %21 = getelementptr inbounds [1001 x i32], [1001 x i32]* %5, i64 0, i64 %20
  %22 = call i32 (i8*, ...) @__isoc99_scanf(i8* getelementptr inbounds ([3 x i8], [3 x i8]* @.str.1, i64 0, i64 0), i32* nonnull %21)
  %23 = add nuw nsw i64 %20, 1
  %24 = load i32, i32* %3, align 4, !tbaa !5
  %25 = sext i32 %24 to i64
  %26 = icmp slt i64 %20, %25
  br i1 %26, label %19, label %12, !llvm.loop !9

27:                                               ; preds = %36
  %28 = add nuw nsw i64 %32, 1
  %29 = icmp eq i64 %33, %17
  br i1 %29, label %45, label %30, !llvm.loop !11

30:                                               ; preds = %27, %15
  %31 = phi i64 [ 1, %15 ], [ %33, %27 ]
  %32 = phi i64 [ 2, %15 ], [ %28, %27 ]
  %33 = add nuw nsw i64 %31, 1
  %34 = getelementptr inbounds [1001 x i32], [1001 x i32]* %5, i64 0, i64 %31
  %35 = load i32, i32* %34, align 4, !tbaa !5
  br label %39

36:                                               ; preds = %39
  %37 = add nuw nsw i64 %40, 1
  %38 = icmp eq i64 %37, %18
  br i1 %38, label %27, label %39, !llvm.loop !12

39:                                               ; preds = %30, %36
  %40 = phi i64 [ %32, %30 ], [ %37, %36 ]
  %41 = getelementptr inbounds [1001 x i32], [1001 x i32]* %5, i64 0, i64 %40
  %42 = load i32, i32* %41, align 4, !tbaa !5
  %43 = add nsw i32 %42, %35
  %44 = icmp eq i32 %43, %13
  br i1 %44, label %45, label %36

45:                                               ; preds = %27, %39, %12, %2
  %46 = phi i8* [ getelementptr inbounds ([3 x i8], [3 x i8]* @.str.3, i64 0, i64 0), %2 ], [ getelementptr inbounds ([3 x i8], [3 x i8]* @.str.3, i64 0, i64 0), %12 ], [ getelementptr inbounds ([4 x i8], [4 x i8]* @.str.2, i64 0, i64 0), %39 ], [ getelementptr inbounds ([3 x i8], [3 x i8]* @.str.3, i64 0, i64 0), %27 ]
  %47 = call i32 (i8*, ...) @printf(i8* nonnull dereferenceable(1) %46)
  call void @llvm.lifetime.end.p0i8(i64 4004, i8* nonnull %9) #3
  call void @llvm.lifetime.end.p0i8(i64 4, i8* nonnull %7) #3
  call void @llvm.lifetime.end.p0i8(i64 4, i8* nonnull %6) #3
  ret i32 0
}

; Function Attrs: argmemonly mustprogress nofree nosync nounwind willreturn
declare void @llvm.lifetime.start.p0i8(i64 immarg, i8* nocapture) #1

; Function Attrs: nofree nounwind
declare noundef i32 @__isoc99_scanf(i8* nocapture noundef readonly, ...) local_unnamed_addr #2

; Function Attrs: argmemonly mustprogress nofree nosync nounwind willreturn
declare void @llvm.lifetime.end.p0i8(i64 immarg, i8* nocapture) #1

; Function Attrs: nofree nounwind
declare noundef i32 @printf(i8* nocapture noundef readonly, ...) local_unnamed_addr #2


!llvm.module.flags = !{!0, !1, !2, !3}
!llvm.ident = !{!4}

!0 = !{i32 1, !"wchar_size", i32 4}
!1 = !{i32 7, !"PIC Level", i32 2}
!2 = !{i32 7, !"PIE Level", i32 2}
!3 = !{i32 7, !"uwtable", i32 1}
!4 = !{!"clang version 13.0.0"}
!5 = !{!6, !6, i64 0}
!6 = !{!"int", !7, i64 0}
!7 = !{!"omnipotent char", !8, i64 0}
!8 = !{!"Simple C/C++ TBAA"}
!9 = distinct !{!9, !10}
!10 = !{!"llvm.loop.mustprogress"}
!11 = distinct !{!11, !10}
!12 = distinct !{!12, !10}
